(dp0
Vengine
p1
Vpdflatex
p2
sVpackages
p3
c__builtin__
set
p4
((lp5
Vhelvet
p6
aValgorithm
p7
aVcourier
p8
aVmultirow
p9
aVurl
p10
aVfloat
p11
aValgpseudocode
p12
aVtimes
p13
aVaaai18
p14
aVbooktabs
p15
aVgraphicx
p16
aVsubcaption
p17
atp18
Rp19
sVfiles_with_guttermarks
p20
g4
((lp21
S'goal_recognition-table.tex'
p22
aV/Users/ramonfragapereira/Workspace/lp-recognizer/experiments/latex-results/./goal_recognition-table.tex
p23
aV/Users/ramonfragapereira/Workspace/lp-recognizer/experiments/latex-results/goal_recognition-table.tex
p24
atp25
Rp26
sVsynctex
p27
I01
s.